target datalayout = "e-m:e-p270:32:32-p271:32:32-p272:64:64-i64:64-i128:128-f80:128-n8:16:32:64-S128"
target triple = "x86_64-pc-linux-gnu"

%struct.UDataInfo = type { i16, i16, i8, i8, i8, i8, [4 x i8], [4 x i8], [4 x i8] }

@dataInfo = internal global %struct.UDataInfo { i16 20, i16 0, i8 0, i8 0, i8 2, i8 0, [4 x i8] c"SPRP", [4 x i8] c"\03\02\05\02", [4 x i8] c"\03\02\00\00" }, align 2

; Function Attrs: nounwind uwtable
define dso_local void @setUnicodeVersion(ptr noundef %0) #0 {
  %2 = alloca ptr, align 8
  %3 = alloca [4 x i8], align 1
  store ptr %0, ptr %2, align 8, !tbaa !4
  call void @llvm.lifetime.start.p0(i64 4, ptr %3) #9
  %4 = getelementptr inbounds [4 x i8], ptr %3, i64 0, i64 0
  %5 = load ptr, ptr %2, align 8, !tbaa !4
  call void @u_versionFromString_77(ptr noundef %4, ptr noundef %5)
  br label %6

6:                                                ; preds = %1
  %7 = getelementptr inbounds [4 x i8], ptr %3, i64 0, i64 0
  call void @llvm.memcpy.p0.p0.i64(ptr align 2 getelementptr inbounds nuw (%struct.UDataInfo, ptr @dataInfo, i32 0, i32 8), ptr align 1 %7, i64 4, i1 false)
  br label %8

8:                                                ; preds = %6
  br label %9

9:                                                ; preds = %8
  call void @llvm.lifetime.end.p0(i64 4, ptr %3) #9
  ret void
}