; Function Attrs: nounwind uwtable
define dso_local void @setUnicodeVersion(ptr noundef %0) local_unnamed_addr #0 {
  %2 = alloca [4 x i8], align 4
  call void @llvm.lifetime.start.p0(i64 4, ptr nonnull %2) #13
  call void @u_versionFromString_77(ptr noundef nonnull %2, ptr noundef %0) #13
  %3 = load i32, ptr %2, align 4
  store i32 %3, ptr getelementptr inbounds nuw (i8, ptr @dataInfo, i64 16), align 2
  call void @llvm.lifetime.end.p0(i64 4, ptr nonnull %2) #13
  ret void
}